target datalayout = "e-m:e-p270:32:32-p271:32:32-p272:64:64-i64:64-i128:128-f80:128-n8:16:32:64-S128"
target triple = "x86_64-pc-linux-gnu"

%struct.TS_resp_ctx = type { ptr, ptr, ptr, ptr, ptr, ptr, ptr, ptr, ptr, ptr, ptr, i32, i32, ptr, ptr, ptr, ptr, ptr, ptr, ptr, ptr, ptr, ptr, ptr }

@.str = private unnamed_addr constant [35 x i8] c"../openssl/crypto/ts/ts_rsp_sign.c\00", align 1
@__func__.TS_RESP_CTX_add_policy = private unnamed_addr constant [23 x i8] c"TS_RESP_CTX_add_policy\00", align 1

; Function Attrs: inlinehint nounwind uwtable
define internal ptr @ossl_check_ASN1_OBJECT_type(ptr noundef %0) #3 {
  %2 = alloca ptr, align 8
  store ptr %0, ptr %2, align 8, !tbaa !58
  %3 = load ptr, ptr %2, align 8, !tbaa !58
  ret ptr %3
}

; Function Attrs: inlinehint nounwind uwtable
define internal ptr @ossl_check_ASN1_OBJECT_sk_type(ptr noundef %0) #3 {
  %2 = alloca ptr, align 8
  store ptr %0, ptr %2, align 8, !tbaa !52
  %3 = load ptr, ptr %2, align 8, !tbaa !52
  ret ptr %3
}

; Function Attrs: nounwind uwtable
define i32 @TS_RESP_CTX_add_policy(ptr noundef %0, ptr noundef %1) #0 {
  %3 = alloca i32, align 4
  %4 = alloca ptr, align 8
  %5 = alloca ptr, align 8
  %6 = alloca ptr, align 8
  %7 = alloca i32, align 4
  store ptr %0, ptr %4, align 8, !tbaa !10
  store ptr %1, ptr %5, align 8, !tbaa !58
  call void @llvm.lifetime.start.p0(i64 8, ptr %6) #7
  store ptr null, ptr %6, align 8, !tbaa !58
  %8 = load ptr, ptr %4, align 8, !tbaa !10
  %9 = getelementptr inbounds nuw %struct.TS_resp_ctx, ptr %8, i32 0, i32 5
  %10 = load ptr, ptr %9, align 8, !tbaa !46
  %11 = icmp eq ptr %10, null
  br i1 %11, label %12, label %18

12:                                               ; preds = %2
  %13 = call ptr @OPENSSL_sk_new_null()
  %14 = load ptr, ptr %4, align 8, !tbaa !10
  %15 = getelementptr inbounds nuw %struct.TS_resp_ctx, ptr %14, i32 0, i32 5
  store ptr %13, ptr %15, align 8, !tbaa !46
  %16 = icmp eq ptr %13, null
  br i1 %16, label %17, label %18

17:                                               ; preds = %12
  call void @ERR_new()
  call void @ERR_set_debug(ptr noundef @.str, i32 noundef 191, ptr noundef @__func__.TS_RESP_CTX_add_policy)
  call void (i32, i32, ptr, ...) @ERR_set_error(i32 noundef 47, i32 noundef 524303, ptr noundef null)
  br label %34

18:                                               ; preds = %12, %2
  %19 = load ptr, ptr %5, align 8, !tbaa !58
  %20 = call ptr @OBJ_dup(ptr noundef %19)
  store ptr %20, ptr %6, align 8, !tbaa !58
  %21 = icmp eq ptr %20, null
  br i1 %21, label %22, label %23

22:                                               ; preds = %18
  call void @ERR_new()
  call void @ERR_set_debug(ptr noundef @.str, i32 noundef 195, ptr noundef @__func__.TS_RESP_CTX_add_policy)
  call void (i32, i32, ptr, ...) @ERR_set_error(i32 noundef 47, i32 noundef 524296, ptr noundef null)
  br label %34

23:                                               ; preds = %18
  %24 = load ptr, ptr %4, align 8, !tbaa !10
  %25 = getelementptr inbounds nuw %struct.TS_resp_ctx, ptr %24, i32 0, i32 5
  %26 = load ptr, ptr %25, align 8, !tbaa !46
  %27 = call ptr @ossl_check_ASN1_OBJECT_sk_type(ptr noundef %26)
  %28 = load ptr, ptr %6, align 8, !tbaa !58
  %29 = call ptr @ossl_check_ASN1_OBJECT_type(ptr noundef %28)
  %30 = call i32 @OPENSSL_sk_push(ptr noundef %27, ptr noundef %29)
  %31 = icmp ne i32 %30, 0
  br i1 %31, label %33, label %32

32:                                               ; preds = %23
  call void @ERR_new()
  call void @ERR_set_debug(ptr noundef @.str, i32 noundef 199, ptr noundef @__func__.TS_RESP_CTX_add_policy)
  call void (i32, i32, ptr, ...) @ERR_set_error(i32 noundef 47, i32 noundef 524303, ptr noundef null)
  br label %34

33:                                               ; preds = %23
  store i32 1, ptr %3, align 4
  store i32 1, ptr %7, align 4
  br label %36

34:                                               ; preds = %32, %22, %17
  %35 = load ptr, ptr %6, align 8, !tbaa !58
  call void @ASN1_OBJECT_free(ptr noundef %35)
  store i32 0, ptr %3, align 4
  store i32 1, ptr %7, align 4
  br label %36

36:                                               ; preds = %34, %33
  call void @llvm.lifetime.end.p0(i64 8, ptr %6) #7
  %37 = load i32, ptr %3, align 4
  ret i32 %37
}