; Function Attrs: nounwind uwtable
define range(i32 0, 2) i32 @TS_RESP_CTX_add_policy(ptr noundef captures(none) %0, ptr noundef %1) local_unnamed_addr #0 {
  %3 = getelementptr inbounds nuw i8, ptr %0, i64 40
  %4 = load ptr, ptr %3, align 8, !tbaa !39
  %5 = icmp eq ptr %4, null
  br i1 %5, label %6, label %9

6:                                                ; preds = %2
  %7 = tail call ptr @OPENSSL_sk_new_null() #9
  store ptr %7, ptr %3, align 8, !tbaa !39
  %8 = icmp eq ptr %7, null
  br i1 %8, label %15, label %9

9:                                                ; preds = %6, %2
  %10 = tail call ptr @OBJ_dup(ptr noundef %1) #9
  %11 = icmp eq ptr %10, null
  br i1 %11, label %15, label %12

12:                                               ; preds = %9
  %13 = load ptr, ptr %3, align 8, !tbaa !39
  %14 = tail call i32 @OPENSSL_sk_push(ptr noundef %13, ptr noundef nonnull %10) #9
  %.not = icmp eq i32 %14, 0
  br i1 %.not, label %15, label %16

15:                                               ; preds = %12, %9, %6
  %.sink8 = phi i32 [ 191, %6 ], [ 195, %9 ], [ 199, %12 ]
  %.sink = phi i32 [ 524303, %6 ], [ 524296, %9 ], [ 524303, %12 ]
  %.0 = phi ptr [ null, %6 ], [ null, %9 ], [ %10, %12 ]
  tail call void @ERR_new() #9
  tail call void @ERR_set_debug(ptr noundef nonnull @.str, i32 noundef %.sink8, ptr noundef nonnull @__func__.TS_RESP_CTX_add_policy) #9
  tail call void (i32, i32, ptr, ...) @ERR_set_error(i32 noundef 47, i32 noundef %.sink, ptr noundef null) #9
  tail call void @ASN1_OBJECT_free(ptr noundef %.0) #9
  br label %16

16:                                               ; preds = %12, %15
  %.06 = phi i32 [ 0, %15 ], [ 1, %12 ]
  ret i32 %.06
}